; ModuleID = 'source-C-CXX/59/1112.c'
source_filename = "source-C-CXX/59/1112.c"
target datalayout = "e-m:e-p270:32:32-p271:32:32-p272:64:64-i64:64-f80:128-n8:16:32:64-S128"
target triple = "x86_64-pc-linux-gnu"

@.str = private unnamed_addr constant [3 x i8] c"%d\00", align 1
@.str.1 = private unnamed_addr constant [6 x i8] c"empty\00", align 1
@.str.2 = private unnamed_addr constant [7 x i8] c"%d %d\0A\00", align 1

; Function Attrs: nofree nounwind sspstrong uwtable
define dso_local i32 @main() local_unnamed_addr #0 {
  %1 = alloca i32, align 4
  %2 = bitcast i32* %1 to i8*
  call void @llvm.lifetime.start.p0i8(i64 4, i8* nonnull %2) #4
  %3 = call i32 (i8*, ...) @__isoc99_scanf(i8* getelementptr inbounds ([3 x i8], [3 x i8]* @.str, i64 0, i64 0), i32* nonnull %1)
  %4 = load i32, i32* %1, align 4, !tbaa !5
  %5 = icmp slt i32 %4, 5
  br i1 %5, label %6, label %8

6:                                                ; preds = %0
  %7 = call i32 (i8*, ...) @printf(i8* nonnull dereferenceable(1) getelementptr inbounds ([6 x i8], [6 x i8]* @.str.1, i64 0, i64 0))
  br label %34

8:                                                ; preds = %0, %30
  %9 = phi i32 [ %31, %30 ], [ %4, %0 ]
  %10 = phi i32 [ %32, %30 ], [ 2, %0 ]
  br label %11

11:                                               ; preds = %8, %11
  %12 = phi i32 [ %15, %11 ], [ 2, %8 ]
  %13 = urem i32 %10, %12
  %14 = icmp eq i32 %13, 0
  %15 = add nuw nsw i32 %12, 1
  br i1 %14, label %16, label %11, !llvm.loop !9

16:                                               ; preds = %11
  %17 = icmp eq i32 %12, %10
  br i1 %17, label %18, label %30

18:                                               ; preds = %16
  %19 = add nuw nsw i32 %10, 2
  br label %20

20:                                               ; preds = %20, %18
  %21 = phi i32 [ 2, %18 ], [ %24, %20 ]
  %22 = urem i32 %19, %21
  %23 = icmp eq i32 %22, 0
  %24 = add nuw nsw i32 %21, 1
  br i1 %23, label %25, label %20, !llvm.loop !9

25:                                               ; preds = %20
  %26 = icmp eq i32 %21, %19
  br i1 %26, label %27, label %30

27:                                               ; preds = %25
  %28 = call i32 (i8*, ...) @printf(i8* nonnull dereferenceable(1) getelementptr inbounds ([7 x i8], [7 x i8]* @.str.2, i64 0, i64 0), i32 %10, i32 %19)
  %29 = load i32, i32* %1, align 4, !tbaa !5
  br label %30

30:                                               ; preds = %16, %25, %27
  %31 = phi i32 [ %9, %16 ], [ %9, %25 ], [ %29, %27 ]
  %32 = add nuw nsw i32 %10, 1
  %33 = icmp slt i32 %32, %31
  br i1 %33, label %8, label %34, !llvm.loop !11

34:                                               ; preds = %30, %6
  call void @llvm.lifetime.end.p0i8(i64 4, i8* nonnull %2) #4
  ret i32 0
}

; Function Attrs: argmemonly mustprogress nofree nosync nounwind willreturn
declare void @llvm.lifetime.start.p0i8(i64 immarg, i8* nocapture) #1

; Function Attrs: nofree nounwind
declare noundef i32 @__isoc99_scanf(i8* nocapture noundef readonly, ...) local_unnamed_addr #2

; Function Attrs: nofree nounwind
declare noundef i32 @printf(i8* nocapture noundef readonly, ...) local_unnamed_addr #2

; Function Attrs: nofree norecurse nosync nounwind readnone sspstrong uwtable
define dso_local i32 @s(i32 %0) local_unnamed_addr #3 {
  br label %2

2:                                                ; preds = %2, %1
  %3 = phi i32 [ 2, %1 ], [ %6, %2 ]
  %4 = srem i32 %0, %3
  %5 = icmp eq i32 %4, 0
  %6 = add nuw nsw i32 %3, 1
  br i1 %5, label %7, label %2, !llvm.loop !9

7:                                                ; preds = %2
  %8 = icmp eq i32 %3, %0
  %9 = zext i1 %8 to i32
  ret i32 %9
}

; Function Attrs: argmemonly mustprogress nofree nosync nounwind willreturn
declare void @llvm.lifetime.end.p0i8(i64 immarg, i8* nocapture) #1


!llvm.module.flags = !{!0, !1, !2, !3}
!llvm.ident = !{!4}

!0 = !{i32 1, !"wchar_size", i32 4}
!1 = !{i32 7, !"PIC Level", i32 2}
!2 = !{i32 7, !"PIE Level", i32 2}
!3 = !{i32 7, !"uwtable", i32 1}
!4 = !{!"clang version 13.0.0"}
!5 = !{!6, !6, i64 0}
!6 = !{!"int", !7, i64 0}
!7 = !{!"omnipotent char", !8, i64 0}
!8 = !{!"Simple C/C++ TBAA"}
!9 = distinct !{!9, !10}
!10 = !{!"llvm.loop.mustprogress"}
!11 = distinct !{!11, !10}
